; Function Attrs: mustprogress uwtable
define dso_local void @_ZNK28cmNinjaNormalTargetGenerator11TargetNamesERKNSt7__cxx1112basic_stringIcSt11char_traitsIcESaIcEEE(ptr dead_on_unwind noalias writable sret(%"struct.cmGeneratorTarget::Names") align 8 %0, ptr nocapture noundef nonnull readonly align 8 dereferenceable(272) %1, ptr noundef nonnull align 8 dereferenceable(32) %2) local_unnamed_addr #3 align 2 {
  %4 = getelementptr inbounds i8, ptr %1, i64 8
  %5 = load ptr, ptr %4, align 8
  %6 = tail call noundef i32 @_ZNK17cmGeneratorTarget7GetTypeEv(ptr noundef nonnull align 8 dereferenceable(2728) %5)
  %7 = icmp eq i32 %6, 0
  %8 = load ptr, ptr %4, align 8
  br i1 %7, label %9, label %10

9:                                                ; preds = %3
  tail call void @_ZNK17cmGeneratorTarget18GetExecutableNamesERKNSt7__cxx1112basic_stringIcSt11char_traitsIcESaIcEEE(ptr dead_on_unwind writable sret(%"struct.cmGeneratorTarget::Names") align 8 %0, ptr noundef nonnull align 8 dereferenceable(2728) %8, ptr noundef nonnull align 8 dereferenceable(32) %2)
  br label %11

10:                                               ; preds = %3
  tail call void @_ZNK17cmGeneratorTarget15GetLibraryNamesERKNSt7__cxx1112basic_stringIcSt11char_traitsIcESaIcEEE(ptr dead_on_unwind writable sret(%"struct.cmGeneratorTarget::Names") align 8 %0, ptr noundef nonnull align 8 dereferenceable(2728) %8, ptr noundef nonnull align 8 dereferenceable(32) %2)
  br label %11

11:                                               ; preds = %10, %9
  ret void
}